; Function Attrs: mustprogress uwtable
define void @_ZN2cv7quality14QualityBRISQUE6createERKNSt7__cxx1112basic_stringIcSt11char_traitsIcESaIcEEES9_(ptr dead_on_unwind noalias writable writeonly sret(%"struct.cv::Ptr") align 8 captures(none) %0, ptr noundef nonnull align 8 dereferenceable(32) %1, ptr noundef nonnull align 8 dereferenceable(32) %2) local_unnamed_addr #3 align 2 personality ptr @__gxx_personality_v0 {
  %4 = tail call noalias noundef nonnull dereferenceable(200) ptr @_Znwm(i64 noundef 200) #24
  invoke void @_ZN2cv7quality14QualityBRISQUEC1ERKNSt7__cxx1112basic_stringIcSt11char_traitsIcESaIcEEES9_(ptr noundef nonnull align 8 dereferenceable(200) %4, ptr noundef nonnull align 8 dereferenceable(32) %1, ptr noundef nonnull align 8 dereferenceable(32) %2)
          to label %5 unwind label %24

5:                                                ; preds = %3
  store ptr %4, ptr %0, align 8, !tbaa !3
  %6 = getelementptr inbounds nuw i8, ptr %0, i64 8
  store ptr null, ptr %6, align 8, !tbaa !11
  %7 = invoke noalias noundef nonnull dereferenceable(24) ptr @_Znwm(i64 noundef 24) #24
          to label %_ZN2cv3PtrINS_7quality14QualityBRISQUEEEC2IS2_EEPT_.exit unwind label %8

8:                                                ; preds = %5
  %9 = landingpad { ptr, i32 }
          catch ptr null
  %10 = extractvalue { ptr, i32 } %9, 0
  %11 = tail call ptr @__cxa_begin_catch(ptr %10) #25
  %12 = load ptr, ptr %4, align 8, !tbaa !12
  %13 = getelementptr inbounds nuw i8, ptr %12, i64 8
  %14 = load ptr, ptr %13, align 8
  tail call void %14(ptr noundef nonnull align 8 dereferenceable(200) %4) #25
  invoke void @__cxa_rethrow() #26
          to label %20 unwind label %15

15:                                               ; preds = %8
  %16 = landingpad { ptr, i32 }
          cleanup
  invoke void @__cxa_end_catch()
          to label %common.resume unwind label %17

common.resume:                                    ; preds = %15, %24
  %common.resume.op = phi { ptr, i32 } [ %25, %24 ], [ %16, %15 ]
  resume { ptr, i32 } %common.resume.op

17:                                               ; preds = %15
  %18 = landingpad { ptr, i32 }
          catch ptr null
  %19 = extractvalue { ptr, i32 } %18, 0
  tail call void @__clang_call_terminate(ptr %19) #27
  unreachable

20:                                               ; preds = %8
  unreachable

_ZN2cv3PtrINS_7quality14QualityBRISQUEEEC2IS2_EEPT_.exit: ; preds = %5
  %21 = getelementptr inbounds nuw i8, ptr %7, i64 8
  store i32 1, ptr %21, align 8, !tbaa !14
  %22 = getelementptr inbounds nuw i8, ptr %7, i64 12
  store i32 1, ptr %22, align 4, !tbaa !17
  store ptr getelementptr inbounds nuw inrange(-16, 40) (i8, ptr @_ZTVSt15_Sp_counted_ptrIPN2cv7quality14QualityBRISQUEELN9__gnu_cxx12_Lock_policyE2EE, i64 16), ptr %7, align 8, !tbaa !12
  %23 = getelementptr inbounds nuw i8, ptr %7, i64 16
  store ptr %4, ptr %23, align 8, !tbaa !18
  store ptr %7, ptr %6, align 8, !tbaa !11
  ret void

24:                                               ; preds = %3
  %25 = landingpad { ptr, i32 }
          cleanup
  tail call void @_ZdlPv(ptr noundef nonnull %4) #28
  br label %common.resume
}